target datalayout = "e-m:e-p270:32:32-p271:32:32-p272:64:64-i64:64-i128:128-f80:128-n8:16:32:64-S128"
target triple = "x86_64-pc-linux-gnu"

%"struct.faiss::Index" = type <{ ptr, i32, [4 x i8], i64, i8, i8, [2 x i8], i32, float, [4 x i8] }>
%"struct.faiss::IndexAdditiveQuantizerFastScan" = type { %"struct.faiss::IndexFastScan", ptr, i8, i32, i64 }
%"struct.faiss::IndexFastScan" = type { %"struct.faiss::Index.base", i32, i32, i32, i32, i64, i64, i64, i64, i64, i64, %"struct.faiss::AlignedTable", ptr }
%"struct.faiss::Index.base" = type <{ ptr, i32, [4 x i8], i64, i8, i8, [2 x i8], i32, float }>
%"struct.faiss::AlignedTable" = type { %"struct.faiss::AlignedTableTightAlloc", i64 }
%"struct.faiss::AlignedTableTightAlloc" = type { ptr, i64 }
%"struct.faiss::Quantizer" = type { ptr, i64, i64 }
%"class.std::vector" = type { %"struct.std::_Vector_base" }
%"struct.std::_Vector_base" = type { %"struct.std::_Vector_base<unsigned long, std::allocator<unsigned long>>::_Vector_impl" }
%"struct.std::_Vector_base<unsigned long, std::allocator<unsigned long>>::_Vector_impl" = type { %"struct.std::_Vector_base<unsigned long, std::allocator<unsigned long>>::_Vector_impl_data" }
%"struct.std::_Vector_base<unsigned long, std::allocator<unsigned long>>::_Vector_impl_data" = type { ptr, ptr, ptr }
%"struct.faiss::IndexFlat1D" = type { %"struct.faiss::IndexFlatL2", i8, %"class.std::vector.13" }
%"struct.faiss::IndexFlatL2" = type { %"struct.faiss::IndexFlat", %"class.std::vector.3" }
%"struct.faiss::IndexFlat" = type { %"struct.faiss::IndexFlatCodes" }
%"struct.faiss::IndexFlatCodes" = type { %"struct.faiss::Index.base", i64, %"class.std::vector.8" }
%"class.std::vector.8" = type { %"struct.std::_Vector_base.9" }
%"struct.std::_Vector_base.9" = type { %"struct.std::_Vector_base<unsigned char, std::allocator<unsigned char>>::_Vector_impl" }
%"struct.std::_Vector_base<unsigned char, std::allocator<unsigned char>>::_Vector_impl" = type { %"struct.std::_Vector_base<unsigned char, std::allocator<unsigned char>>::_Vector_impl_data" }
%"struct.std::_Vector_base<unsigned char, std::allocator<unsigned char>>::_Vector_impl_data" = type { ptr, ptr, ptr }
%"class.std::vector.13" = type { %"struct.std::_Vector_base.14" }
%"struct.std::_Vector_base.14" = type { %"struct.std::_Vector_base<long, std::allocator<long>>::_Vector_impl" }
%"struct.std::_Vector_base<long, std::allocator<long>>::_Vector_impl" = type { %"struct.std::_Vector_base<long, std::allocator<long>>::_Vector_impl_data" }
%"struct.std::_Vector_base<long, std::allocator<long>>::_Vector_impl_data" = type { ptr, ptr, ptr }
%"class.std::vector.3" = type { %"struct.std::_Vector_base.4" }
%"struct.std::_Vector_base.4" = type { %"struct.std::_Vector_base<float, std::allocator<float>>::_Vector_impl" }
%"struct.std::_Vector_base<float, std::allocator<float>>::_Vector_impl" = type { %"struct.std::_Vector_base<float, std::allocator<float>>::_Vector_impl_data" }
%"struct.std::_Vector_base<float, std::allocator<float>>::_Vector_impl_data" = type { ptr, ptr, ptr }
%"struct.faiss::IndexResidualQuantizerFastScan" = type { %"struct.faiss::IndexAdditiveQuantizerFastScan", %"struct.faiss::ResidualQuantizer" }
%"struct.faiss::ResidualQuantizer" = type { %"struct.faiss::AdditiveQuantizer.base", i32, i32, i32, i32, i32, %"struct.faiss::ProgressiveDimClusteringParameters", ptr }
%"struct.faiss::AdditiveQuantizer.base" = type <{ %"struct.faiss::Quantizer", i64, %"class.std::vector", %"class.std::vector.3", %"class.std::vector", i64, i64, i64, i8, i8, i8, [5 x i8], %"class.std::vector.3", %"struct.faiss::IndexFlat1D", %"class.std::vector.3", %"class.std::vector.3", i64, i32, float, float }>
%"struct.faiss::ProgressiveDimClusteringParameters" = type <{ %"struct.faiss::ClusteringParameters.base", [2 x i8], i32, i8, [7 x i8] }>
%"struct.faiss::ClusteringParameters.base" = type <{ i32, i32, i8, i8, i8, i8, i8, [3 x i8], i32, i32, i32, [4 x i8], i64, i8, i8 }>

; Function Attrs: mustprogress uwtable
define void @_ZN5faiss30IndexAdditiveQuantizerFastScanC2Ev(ptr noundef nonnull align 8 dereferenceable(160) %0) unnamed_addr #1 align 2 {
  %2 = alloca ptr, align 8
  store ptr %0, ptr %2, align 8, !tbaa !4
  %3 = load ptr, ptr %2, align 8
  call void @_ZN5faiss13IndexFastScanC2Ev(ptr noundef nonnull align 8 dereferenceable(136) %3)
  store ptr getelementptr inbounds inrange(-16, 200) ({ [27 x ptr] }, ptr @_ZTVN5faiss30IndexAdditiveQuantizerFastScanE, i32 0, i32 0, i32 2), ptr %3, align 8, !tbaa !57
  %4 = getelementptr inbounds nuw %"struct.faiss::IndexAdditiveQuantizerFastScan", ptr %3, i32 0, i32 2
  store i8 1, ptr %4, align 8, !tbaa !63
  %5 = getelementptr inbounds nuw %"struct.faiss::IndexAdditiveQuantizerFastScan", ptr %3, i32 0, i32 3
  store i32 1, ptr %5, align 4, !tbaa !64
  %6 = getelementptr inbounds nuw %"struct.faiss::IndexAdditiveQuantizerFastScan", ptr %3, i32 0, i32 4
  store i64 0, ptr %6, align 8, !tbaa !23
  %7 = getelementptr inbounds nuw %"struct.faiss::Index", ptr %3, i32 0, i32 5
  store i8 0, ptr %7, align 1, !tbaa !13
  %8 = getelementptr inbounds nuw %"struct.faiss::IndexAdditiveQuantizerFastScan", ptr %3, i32 0, i32 1
  store ptr null, ptr %8, align 8, !tbaa !31
  ret void
}

; Function Attrs: mustprogress uwtable
define void @_ZN5faiss30IndexResidualQuantizerFastScanC2Ev(ptr noundef nonnull align 8 dereferenceable(600) %0) unnamed_addr #1 align 2 personality ptr @__gxx_personality_v0 {
  %2 = alloca ptr, align 8
  %3 = alloca ptr, align 8
  %4 = alloca i32, align 4
  store ptr %0, ptr %2, align 8, !tbaa !194
  %5 = load ptr, ptr %2, align 8
  call void @_ZN5faiss30IndexAdditiveQuantizerFastScanC2Ev(ptr noundef nonnull align 8 dereferenceable(160) %5)
  store ptr getelementptr inbounds inrange(-16, 200) ({ [27 x ptr] }, ptr @_ZTVN5faiss30IndexResidualQuantizerFastScanE, i32 0, i32 0, i32 2), ptr %5, align 8, !tbaa !57
  %6 = getelementptr inbounds nuw %"struct.faiss::IndexResidualQuantizerFastScan", ptr %5, i32 0, i32 1
  invoke void @_ZN5faiss17ResidualQuantizerC1Ev(ptr noundef nonnull align 8 dereferenceable(440) %6)
          to label %7 unwind label %10

7:                                                ; preds = %1
  %8 = getelementptr inbounds nuw %"struct.faiss::IndexResidualQuantizerFastScan", ptr %5, i32 0, i32 1
  %9 = getelementptr inbounds nuw %"struct.faiss::IndexAdditiveQuantizerFastScan", ptr %5, i32 0, i32 1
  store ptr %8, ptr %9, align 8, !tbaa !31
  ret void

10:                                               ; preds = %1
  %11 = landingpad { ptr, i32 }
          cleanup
  %12 = extractvalue { ptr, i32 } %11, 0
  store ptr %12, ptr %3, align 8
  %13 = extractvalue { ptr, i32 } %11, 1
  store i32 %13, ptr %4, align 4
  call void @_ZN5faiss30IndexAdditiveQuantizerFastScanD2Ev(ptr noundef nonnull align 8 dereferenceable(160) %5) #11
  br label %14

14:                                               ; preds = %10
  %15 = load ptr, ptr %3, align 8
  %16 = load i32, ptr %4, align 4
  %17 = insertvalue { ptr, i32 } poison, ptr %15, 0
  %18 = insertvalue { ptr, i32 } %17, i32 %16, 1
  resume { ptr, i32 } %18
}